(imatplotlib.font_manager
FontManager
p1
(dp2
S'afm_lookup_cache'
p3
(dp4
sS'ttflist'
p5
(lp6
ccopy_reg
_reconstructor
p7
(cmatplotlib.font_manager
FontEntry
p8
c__builtin__
object
p9
NtRp10
(dp11
S'style'
p12
S'normal'
p13
sS'name'
p14
S'STIXSize4'
p15
sS'weight'
p16
I400
sS'stretch'
p17
g13
sS'variant'
p18
g13
sS'fname'
p19
S'/usr/local/lib/python2.6/site-packages/matplotlib/mpl-data/fonts/ttf/STIXSiz4Sym.ttf'
p20
sS'size'
p21
S'scalable'
p22
sbag7
(g8
g9
NtRp23
(dp24
g12
g13
sg14
S'STIXSize1'
p25
sg16
I400
sg17
g13
sg18
g13
sg19
S'/usr/local/lib/python2.6/site-packages/matplotlib/mpl-data/fonts/ttf/STIXSiz1Sym.ttf'
p26
sg21
g22
sbag7
(g8
g9
NtRp27
(dp28
g12
g13
sg14
S'cmb10'
p29
sg16
I400
sg17
g13
sg18
g13
sg19
S'/usr/local/lib/python2.6/site-packages/matplotlib/mpl-data/fonts/ttf/cmb10.ttf'
p30
sg21
g22
sbag7
(g8
g9
NtRp31
(dp32
g12
g13
sg14
S'STIXSize2'
p33
sg16
I700
sg17
g13
sg18
g13
sg19
S'/usr/local/lib/python2.6/site-packages/matplotlib/mpl-data/fonts/ttf/STIXSiz2SymBol.ttf'
p34
sg21
g22
sbag7
(g8
g9
NtRp35
(dp36
g12
g13
sg14
S'STIXNonUnicode'
p37
sg16
I400
sg17
g13
sg18
g13
sg19
S'/usr/local/lib/python2.6/site-packages/matplotlib/mpl-data/fonts/ttf/STIXNonUni.ttf'
p38
sg21
g22
sbag7
(g8
g9
NtRp39
(dp40
g12
g13
sg14
S'STIXSize3'
p41
sg16
I400
sg17
g13
sg18
g13
sg19
S'/usr/local/lib/python2.6/site-packages/matplotlib/mpl-data/fonts/ttf/STIXSiz3Sym.ttf'
p42
sg21
g22
sbag7
(g8
g9
NtRp43
(dp44
g12
g13
sg14
S'cmr10'
p45
sg16
I400
sg17
g13
sg18
g13
sg19
S'/usr/local/lib/python2.6/site-packages/matplotlib/mpl-data/fonts/ttf/cmr10.ttf'
p46
sg21
g22
sbag7
(g8
g9
NtRp47
(dp48
g12
S'italic'
p49
sg14
S'STIXGeneral'
p50
sg16
I700
sg17
g13
sg18
g13
sg19
S'/usr/local/lib/python2.6/site-packages/matplotlib/mpl-data/fonts/ttf/STIXGeneralBolIta.ttf'
p51
sg21
g22
sbag7
(g8
g9
NtRp52
(dp53
g12
g49
sg14
S'STIXNonUnicode'
p54
sg16
I700
sg17
g13
sg18
g13
sg19
S'/usr/local/lib/python2.6/site-packages/matplotlib/mpl-data/fonts/ttf/STIXNonUniBolIta.ttf'
p55
sg21
g22
sbag7
(g8
g9
NtRp56
(dp57
g12
S'oblique'
p58
sg14
S'Bitstream Vera Sans Mono'
p59
sg16
I700
sg17
g13
sg18
g13
sg19
S'/usr/local/lib/python2.6/site-packages/matplotlib/mpl-data/fonts/ttf/VeraMoBI.ttf'
p60
sg21
g22
sbag7
(g8
g9
NtRp61
(dp62
g12
g13
sg14
S'STIXSize3'
p63
sg16
I700
sg17
g13
sg18
g13
sg19
S'/usr/local/lib/python2.6/site-packages/matplotlib/mpl-data/fonts/ttf/STIXSiz3SymBol.ttf'
p64
sg21
g22
sbag7
(g8
g9
NtRp65
(dp66
g12
g13
sg14
S'STIXSize4'
p67
sg16
I700
sg17
g13
sg18
g13
sg19
S'/usr/local/lib/python2.6/site-packages/matplotlib/mpl-data/fonts/ttf/STIXSiz4SymBol.ttf'
p68
sg21
g22
sbag7
(g8
g9
NtRp69
(dp70
g12
g13
sg14
S'STIXGeneral'
p71
sg16
I700
sg17
g13
sg18
g13
sg19
S'/usr/local/lib/python2.6/site-packages/matplotlib/mpl-data/fonts/ttf/STIXGeneralBol.ttf'
p72
sg21
g22
sbag7
(g8
g9
NtRp73
(dp74
g12
g13
sg14
S'Bitstream Vera Sans'
p75
sg16
I700
sg17
g13
sg18
g13
sg19
S'/usr/local/lib/python2.6/site-packages/matplotlib/mpl-data/fonts/ttf/VeraBd.ttf'
p76
sg21
g22
sbag7
(g8
g9
NtRp77
(dp78
g12
g13
sg14
S'cmss10'
p79
sg16
I400
sg17
g13
sg18
g13
sg19
S'/usr/local/lib/python2.6/site-packages/matplotlib/mpl-data/fonts/ttf/cmss10.ttf'
p80
sg21
g22
sbag7
(g8
g9
NtRp81
(dp82
g12
g13
sg14
S'cmsy10'
p83
sg16
I400
sg17
g13
sg18
g13
sg19
S'/usr/local/lib/python2.6/site-packages/matplotlib/mpl-data/fonts/ttf/cmsy10.ttf'
p84
sg21
g22
sbag7
(g8
g9
NtRp85
(dp86
g12
g49
sg14
S'STIXNonUnicode'
p87
sg16
I400
sg17
g13
sg18
g13
sg19
S'/usr/local/lib/python2.6/site-packages/matplotlib/mpl-data/fonts/ttf/STIXNonUniIta.ttf'
p88
sg21
g22
sbag7
(g8
g9
NtRp89
(dp90
g12
g13
sg14
S'STIXSize2'
p91
sg16
I400
sg17
g13
sg18
g13
sg19
S'/usr/local/lib/python2.6/site-packages/matplotlib/mpl-data/fonts/ttf/STIXSiz2Sym.ttf'
p92
sg21
g22
sbag7
(g8
g9
NtRp93
(dp94
g12
g13
sg14
S'STIXSize5'
p95
sg16
I400
sg17
g13
sg18
g13
sg19
S'/usr/local/lib/python2.6/site-packages/matplotlib/mpl-data/fonts/ttf/STIXSiz5Sym.ttf'
p96
sg21
g22
sbag7
(g8
g9
NtRp97
(dp98
g12
g58
sg14
S'Bitstream Vera Sans Mono'
p99
sg16
I400
sg17
g13
sg18
g13
sg19
S'/usr/local/lib/python2.6/site-packages/matplotlib/mpl-data/fonts/ttf/VeraMoIt.ttf'
p100
sg21
g22
sbag7
(g8
g9
NtRp101
(dp102
g12
g13
sg14
S'cmtt10'
p103
sg16
I400
sg17
g13
sg18
g13
sg19
S'/usr/local/lib/python2.6/site-packages/matplotlib/mpl-data/fonts/ttf/cmtt10.ttf'
p104
sg21
g22
sbag7
(g8
g9
NtRp105
(dp106
g12
g13
sg14
S'STIXGeneral'
p107
sg16
I400
sg17
g13
sg18
g13
sg19
S'/usr/local/lib/python2.6/site-packages/matplotlib/mpl-data/fonts/ttf/STIXGeneral.ttf'
p108
sg21
g22
sbag7
(g8
g9
NtRp109
(dp110
g12
g13
sg14
S'Bitstream Vera Sans Mono'
p111
sg16
I700
sg17
g13
sg18
g13
sg19
S'/usr/local/lib/python2.6/site-packages/matplotlib/mpl-data/fonts/ttf/VeraMoBd.ttf'
p112
sg21
g22
sbag7
(g8
g9
NtRp113
(dp114
g12
g49
sg14
S'STIXGeneral'
p115
sg16
I400
sg17
g13
sg18
g13
sg19
S'/usr/local/lib/python2.6/site-packages/matplotlib/mpl-data/fonts/ttf/STIXGeneralItalic.ttf'
p116
sg21
g22
sbag7
(g8
g9
NtRp117
(dp118
g12
g13
sg14
S'Bitstream Vera Sans'
p119
sg16
I400
sg17
g13
sg18
g13
sg19
S'/usr/local/lib/python2.6/site-packages/matplotlib/mpl-data/fonts/ttf/Vera.ttf'
p120
sg21
g22
sbag7
(g8
g9
NtRp121
(dp122
g12
g13
sg14
S'Bitstream Vera Sans Mono'
p123
sg16
I400
sg17
g13
sg18
g13
sg19
S'/usr/local/lib/python2.6/site-packages/matplotlib/mpl-data/fonts/ttf/VeraMono.ttf'
p124
sg21
g22
sbag7
(g8
g9
NtRp125
(dp126
g12
g13
sg14
S'Bitstream Vera Serif'
p127
sg16
I400
sg17
g13
sg18
g13
sg19
S'/usr/local/lib/python2.6/site-packages/matplotlib/mpl-data/fonts/ttf/VeraSe.ttf'
p128
sg21
g22
sbag7
(g8
g9
NtRp129
(dp130
g12
g58
sg14
S'Bitstream Vera Sans'
p131
sg16
I400
sg17
g13
sg18
g13
sg19
S'/usr/local/lib/python2.6/site-packages/matplotlib/mpl-data/fonts/ttf/VeraIt.ttf'
p132
sg21
g22
sbag7
(g8
g9
NtRp133
(dp134
g12
g13
sg14
S'STIXNonUnicode'
p135
sg16
I700
sg17
g13
sg18
g13
sg19
S'/usr/local/lib/python2.6/site-packages/matplotlib/mpl-data/fonts/ttf/STIXNonUniBol.ttf'
p136
sg21
g22
sbag7
(g8
g9
NtRp137
(dp138
g12
g58
sg14
S'Bitstream Vera Sans'
p139
sg16
I700
sg17
g13
sg18
g13
sg19
S'/usr/local/lib/python2.6/site-packages/matplotlib/mpl-data/fonts/ttf/VeraBI.ttf'
p140
sg21
g22
sbag7
(g8
g9
NtRp141
(dp142
g12
g13
sg14
S'cmex10'
p143
sg16
I400
sg17
g13
sg18
g13
sg19
S'/usr/local/lib/python2.6/site-packages/matplotlib/mpl-data/fonts/ttf/cmex10.ttf'
p144
sg21
g22
sbag7
(g8
g9
NtRp145
(dp146
g12
g13
sg14
S'STIXSize1'
p147
sg16
I700
sg17
g13
sg18
g13
sg19
S'/usr/local/lib/python2.6/site-packages/matplotlib/mpl-data/fonts/ttf/STIXSiz1SymBol.ttf'
p148
sg21
g22
sbag7
(g8
g9
NtRp149
(dp150
g12
g13
sg14
S'cmmi10'
p151
sg16
I400
sg17
g13
sg18
g13
sg19
S'/usr/local/lib/python2.6/site-packages/matplotlib/mpl-data/fonts/ttf/cmmi10.ttf'
p152
sg21
g22
sbag7
(g8
g9
NtRp153
(dp154
g12
g13
sg14
S'Bitstream Vera Serif'
p155
sg16
I700
sg17
g13
sg18
g13
sg19
S'/usr/local/lib/python2.6/site-packages/matplotlib/mpl-data/fonts/ttf/VeraSeBd.ttf'
p156
sg21
g22
sbag7
(g8
g9
NtRp157
(dp158
g12
g49
sg14
S'Trebuchet MS'
p159
sg16
I400
sg17
g13
sg18
g13
sg19
S'/usr/share/fonts/msttcorefonts/trebucit.ttf'
p160
sg21
g22
sbag7
(g8
g9
NtRp161
(dp162
g12
g49
sg14
S'Arial'
p163
sg16
I700
sg17
g13
sg18
g13
sg19
S'/usr/share/fonts/msttcorefonts/arialbi.ttf'
p164
sg21
g22
sbag7
(g8
g9
NtRp165
(dp166
g12
g13
sg14
S'KacstQura'
p167
sg16
I400
sg17
g13
sg18
g13
sg19
S'/usr/share/fonts/arabic/KacstQura.ttf'
p168
sg21
g22
sbag7
(g8
g9
NtRp169
(dp170
g12
g13
sg14
S'Lohit Hindi'
p171
sg16
I400
sg17
g13
sg18
g13
sg19
S'/usr/share/fonts/hi/lohit_hi.ttf'
p172
sg21
g22
sbag7
(g8
g9
NtRp173
(dp174
g12
g49
sg14
S'Georgia'
p175
sg16
I700
sg17
g13
sg18
g13
sg19
S'/usr/share/fonts/msttcorefonts/georgiaz.ttf'
p176
sg21
g22
sbag7
(g8
g9
NtRp177
(dp178
g12
g13
sg14
S'Baekmuk Headline'
p179
sg16
I400
sg17
g13
sg18
g13
sg19
S'/usr/share/fonts/ko/TrueType/hline.ttf'
p180
sg21
g22
sbag7
(g8
g9
NtRp181
(dp182
g12
g58
sg14
S'Luxi Mono'
p183
sg16
I700
sg17
g13
sg18
g13
sg19
S'/usr/X11R6/lib/X11/fonts/TTF/luximbi.ttf'
p184
sg21
g22
sbag7
(g8
g9
NtRp185
(dp186
g12
g13
sg14
S'Trebuchet MS'
p187
sg16
I400
sg17
g13
sg18
g13
sg19
S'/usr/share/fonts/msttcorefonts/trebuc.ttf'
p188
sg21
g22
sbag7
(g8
g9
NtRp189
(dp190
g12
g13
sg14
S'KacstQuran'
p191
sg16
I400
sg17
g13
sg18
g13
sg19
S'/usr/share/fonts/arabic/KacstQuran.ttf'
p192
sg21
g22
sbag7
(g8
g9
NtRp193
(dp194
g12
g13
sg14
S'Webdings'
p195
sg16
I400
sg17
g13
sg18
g13
sg19
S'/usr/share/fonts/msttcorefonts/webdings.ttf'
p196
sg21
g22
sbag7
(g8
g9
NtRp197
(dp198
g12
g13
sg14
S'Kochi Gothic'
p199
sg16
I400
sg17
g13
sg18
g13
sg19
S'/usr/share/fonts/ja/TrueType/kochi-gothic-subst.ttf'
p200
sg21
g22
sbag7
(g8
g9
NtRp201
(dp202
g12
g13
sg14
S'ZYSong18030'
p203
sg16
I400
sg17
g13
sg18
g13
sg19
S'/usr/share/fonts/zh_CN/TrueType/zysong.ttf'
p204
sg21
g22
sbag7
(g8
g9
NtRp205
(dp206
g12
g13
sg14
S'Luxi Sans'
p207
sg16
I700
sg17
g13
sg18
g13
sg19
S'/usr/X11R6/lib/X11/fonts/TTF/luxisb.ttf'
p208
sg21
g22
sbag7
(g8
g9
NtRp209
(dp210
g12
g58
sg14
S'Luxi Serif'
p211
sg16
I700
sg17
g13
sg18
g13
sg19
S'/usr/X11R6/lib/X11/fonts/TTF/luxirbi.ttf'
p212
sg21
g22
sbag7
(g8
g9
NtRp213
(dp214
g12
g13
sg14
S'Luxi Mono'
p215
sg16
I400
sg17
g13
sg18
g13
sg19
S'/usr/X11R6/lib/X11/fonts/TTF/luximr.ttf'
p216
sg21
g22
sbag7
(g8
g9
NtRp217
(dp218
g12
g13
sg14
S'Baekmuk Batang'
p219
sg16
I400
sg17
g13
sg18
g13
sg19
S'/usr/share/fonts/ko/TrueType/batang.ttf'
p220
sg21
g22
sbag7
(g8
g9
NtRp221
(dp222
g12
g13
sg14
S'Mukti Narrow'
p223
sg16
I400
sg17
g13
sg18
g13
sg19
S'/usr/share/fonts/bengali/MuktiNarrow.ttf'
p224
sg21
g22
sbag7
(g8
g9
NtRp225
(dp226
g12
g13
sg14
S'AR PL SungtiL GB'
p227
sg16
I400
sg17
g13
sg18
g13
sg19
S'/usr/share/fonts/zh_CN/TrueType/gbsn00lp.ttf'
p228
sg21
g22
sbag7
(g8
g9
NtRp229
(dp230
g12
g13
sg14
S'KacstDecorative'
p231
sg16
I400
sg17
g13
sg18
g13
sg19
S'/usr/share/fonts/arabic/KacstDecorative.ttf'
p232
sg21
g22
sbag7
(g8
g9
NtRp233
(dp234
g12
g58
sg14
S'Luxi Sans'
p235
sg16
I400
sg17
g13
sg18
g13
sg19
S'/usr/X11R6/lib/X11/fonts/TTF/luxisri.ttf'
p236
sg21
g22
sbag7
(g8
g9
NtRp237
(dp238
g12
g58
sg14
S'Luxi Serif'
p239
sg16
I400
sg17
g13
sg18
g13
sg19
S'/usr/X11R6/lib/X11/fonts/TTF/luxirri.ttf'
p240
sg21
g22
sbag7
(g8
g9
NtRp241
(dp242
g12
g13
sg14
S'Baekmuk Dotum'
p243
sg16
I400
sg17
g13
sg18
g13
sg19
S'/usr/share/fonts/ko/TrueType/dotum.ttf'
p244
sg21
g22
sbag7
(g8
g9
NtRp245
(dp246
g12
g13
sg14
S'KacstQuraFixed'
p247
sg16
I400
sg17
g13
sg18
g13
sg19
S'/usr/share/fonts/arabic/KacstQuraFixed.ttf'
p248
sg21
g22
sbag7
(g8
g9
NtRp249
(dp250
g12
g13
sg14
S'Arial'
p251
sg16
I400
sg17
g13
sg18
g13
sg19
S'/usr/share/fonts/msttcorefonts/arial.ttf'
p252
sg21
g22
sbag7
(g8
g9
NtRp253
(dp254
g12
g49
sg14
S'Trebuchet MS'
p255
sg16
I700
sg17
g13
sg18
g13
sg19
S'/usr/share/fonts/msttcorefonts/trebucbi.ttf'
p256
sg21
g22
sbag7
(g8
g9
NtRp257
(dp258
g12
g13
sg14
S'Lohit Bengali'
p259
sg16
I400
sg17
g13
sg18
g13
sg19
S'/usr/share/fonts/bn/lohit_bn.ttf'
p260
sg21
g22
sbag7
(g8
g9
NtRp261
(dp262
g12
g13
sg14
S'Tahoma'
p263
sg16
I400
sg17
g13
sg18
g13
sg19
S'/usr/share/fonts/msttcorefonts/tahoma.ttf'
p264
sg21
g22
sbag7
(g8
g9
NtRp265
(dp266
g12
g13
sg14
S'Georgia'
p267
sg16
I400
sg17
g13
sg18
g13
sg19
S'/usr/share/fonts/msttcorefonts/georgia.ttf'
p268
sg21
g22
sbag7
(g8
g9
NtRp269
(dp270
g12
g49
sg14
S'Times New Roman'
p271
sg16
I500
sg17
g13
sg18
g13
sg19
S'/usr/share/fonts/msttcorefonts/timesi.ttf'
p272
sg21
g22
sbag7
(g8
g9
NtRp273
(dp274
g12
g13
sg14
S'Comic Sans MS'
p275
sg16
I400
sg17
g13
sg18
g13
sg19
S'/usr/share/fonts/msttcorefonts/comic.ttf'
p276
sg21
g22
sbag7
(g8
g9
NtRp277
(dp278
g12
g13
sg14
S'Arial Black'
p279
sg16
I900
sg17
g13
sg18
g13
sg19
S'/usr/share/fonts/msttcorefonts/ariblk.ttf'
p280
sg21
g22
sbag7
(g8
g9
NtRp281
(dp282
g12
g13
sg14
S'Lohit Tamil'
p283
sg16
I400
sg17
g13
sg18
g13
sg19
S'/usr/share/fonts/ta/lohit_ta.ttf'
p284
sg21
g22
sbag7
(g8
g9
NtRp285
(dp286
g12
g13
sg14
S'Luxi Serif'
p287
sg16
I700
sg17
g13
sg18
g13
sg19
S'/usr/X11R6/lib/X11/fonts/TTF/luxirb.ttf'
p288
sg21
g22
sbag7
(g8
g9
NtRp289
(dp290
g12
g13
sg14
S'KacstBook'
p291
sg16
I400
sg17
g13
sg18
g13
sg19
S'/usr/share/fonts/arabic/KacstBook.ttf'
p292
sg21
g22
sbag7
(g8
g9
NtRp293
(dp294
g12
g49
sg14
S'Arial'
p295
sg16
I400
sg17
g13
sg18
g13
sg19
S'/usr/share/fonts/msttcorefonts/ariali.ttf'
p296
sg21
g22
sbag7
(g8
g9
NtRp297
(dp298
g12
g13
sg14
S'Luxi Sans'
p299
sg16
I400
sg17
g13
sg18
g13
sg19
S'/usr/X11R6/lib/X11/fonts/TTF/luxisr.ttf'
p300
sg21
g22
sbag7
(g8
g9
NtRp301
(dp302
g12
g13
sg14
S'Luxi Mono'
p303
sg16
I700
sg17
g13
sg18
g13
sg19
S'/usr/X11R6/lib/X11/fonts/TTF/luximb.ttf'
p304
sg21
g22
sbag7
(g8
g9
NtRp305
(dp306
g12
g13
sg14
S'KacstTitleL'
p307
sg16
I400
sg17
g13
sg18
g13
sg19
S'/usr/share/fonts/arabic/KacstTitleL.ttf'
p308
sg21
g22
sbag7
(g8
g9
NtRp309
(dp310
g12
g13
sg14
S'Baekmuk Gulim'
p311
sg16
I400
sg17
g13
sg18
g13
sg19
S'/usr/share/fonts/ko/TrueType/gulim.ttf'
p312
sg21
g22
sbag7
(g8
g9
NtRp313
(dp314
g12
g13
sg14
S'Andale Mono'
p315
sg16
I400
sg17
g13
sg18
g13
sg19
S'/usr/share/fonts/msttcorefonts/andalemo.ttf'
p316
sg21
g22
sbag7
(g8
g9
NtRp317
(dp318
g12
g13
sg14
S'Georgia'
p319
sg16
I700
sg17
g13
sg18
g13
sg19
S'/usr/share/fonts/msttcorefonts/georgiab.ttf'
p320
sg21
g22
sbag7
(g8
g9
NtRp321
(dp322
g12
g13
sg14
S'Courier New'
p323
sg16
I400
sg17
g13
sg18
g13
sg19
S'/usr/share/fonts/msttcorefonts/cour.ttf'
p324
sg21
g22
sbag7
(g8
g9
NtRp325
(dp326
g12
g13
sg14
S'Verdana'
p327
sg16
I700
sg17
g13
sg18
g13
sg19
S'/usr/share/fonts/msttcorefonts/verdanab.ttf'
p328
sg21
g22
sbag7
(g8
g9
NtRp329
(dp330
g12
g13
sg14
S'Verdana'
p331
sg16
I400
sg17
g13
sg18
g13
sg19
S'/usr/share/fonts/msttcorefonts/verdana.ttf'
p332
sg21
g22
sbag7
(g8
g9
NtRp333
(dp334
g12
g13
sg14
S'KacstArt'
p335
sg16
I400
sg17
g13
sg18
g13
sg19
S'/usr/share/fonts/arabic/KacstArt.ttf'
p336
sg21
g22
sbag7
(g8
g9
NtRp337
(dp338
g12
g58
sg14
S'Luxi Sans'
p339
sg16
I700
sg17
g13
sg18
g13
sg19
S'/usr/X11R6/lib/X11/fonts/TTF/luxisbi.ttf'
p340
sg21
g22
sbag7
(g8
g9
NtRp341
(dp342
g12
g13
sg14
S'Trebuchet MS'
p343
sg16
I700
sg17
g13
sg18
g13
sg19
S'/usr/share/fonts/msttcorefonts/trebucbd.ttf'
p344
sg21
g22
sbag7
(g8
g9
NtRp345
(dp346
g12
g13
sg14
S'Kochi Mincho'
p347
sg16
I400
sg17
g13
sg18
g13
sg19
S'/usr/share/fonts/ja/TrueType/kochi-mincho-subst.ttf'
p348
sg21
g22
sbag7
(g8
g9
NtRp349
(dp350
g12
g13
sg14
S'Lohit Gujarati'
p351
sg16
I400
sg17
g13
sg18
g13
sg19
S'/usr/share/fonts/gu/lohit_gu.ttf'
p352
sg21
g22
sbag7
(g8
g9
NtRp353
(dp354
g12
g49
sg14
S'Times New Roman'
p355
sg16
I700
sg17
g13
sg18
g13
sg19
S'/usr/share/fonts/msttcorefonts/timesbi.ttf'
p356
sg21
g22
sbag7
(g8
g9
NtRp357
(dp358
g12
g13
sg14
S'KacstLetter'
p359
sg16
I400
sg17
g13
sg18
g13
sg19
S'/usr/share/fonts/arabic/KacstLetter.ttf'
p360
sg21
g22
sbag7
(g8
g9
NtRp361
(dp362
g12
g13
sg14
S'Mukti Narrow'
p363
sg16
I700
sg17
g13
sg18
g13
sg19
S'/usr/share/fonts/bengali/MuktiNarrowBold.ttf'
p364
sg21
g22
sbag7
(g8
g9
NtRp365
(dp366
g12
g13
sg14
S'OpenSymbol'
p367
sg16
I400
sg17
g13
sg18
g13
sg19
S'/usr/share/fonts/openoffice/opens___.ttf'
p368
sg21
g22
sbag7
(g8
g9
NtRp369
(dp370
g12
g13
sg14
S'Arial'
p371
sg16
I700
sg17
g13
sg18
g13
sg19
S'/usr/share/fonts/msttcorefonts/arialbd.ttf'
p372
sg21
g22
sbag7
(g8
g9
NtRp373
(dp374
g12
g13
sg14
S'Comic Sans MS'
p375
sg16
I700
sg17
g13
sg18
g13
sg19
S'/usr/share/fonts/msttcorefonts/comicbd.ttf'
p376
sg21
g22
sbag7
(g8
g9
NtRp377
(dp378
g12
g13
sg14
S'Times New Roman'
p379
sg16
I700
sg17
g13
sg18
g13
sg19
S'/usr/share/fonts/msttcorefonts/timesbd.ttf'
p380
sg21
g22
sbag7
(g8
g9
NtRp381
(dp382
g12
g13
sg14
S'Lohit Punjabi'
p383
sg16
I400
sg17
g13
sg18
g13
sg19
S'/usr/share/fonts/pa/lohit_pa.ttf'
p384
sg21
g22
sbag7
(g8
g9
NtRp385
(dp386
g12
g49
sg14
S'Verdana'
p387
sg16
I400
sg17
g13
sg18
g13
sg19
S'/usr/share/fonts/msttcorefonts/verdanai.ttf'
p388
sg21
g22
sbag7
(g8
g9
NtRp389
(dp390
g12
g13
sg14
S'AR PL KaitiM Big5'
p391
sg16
I400
sg17
g13
sg18
g13
sg19
S'/usr/share/fonts/zh_TW/TrueType/bkai00mp.ttf'
p392
sg21
g22
sbag7
(g8
g9
NtRp393
(dp394
g12
g13
sg14
S'KacstPoster'
p395
sg16
I400
sg17
g13
sg18
g13
sg19
S'/usr/share/fonts/arabic/KacstPoster.ttf'
p396
sg21
g22
sbag7
(g8
g9
NtRp397
(dp398
g12
g49
sg14
S'Verdana'
p399
sg16
I700
sg17
g13
sg18
g13
sg19
S'/usr/share/fonts/msttcorefonts/verdanaz.ttf'
p400
sg21
g22
sbag7
(g8
g9
NtRp401
(dp402
g12
g13
sg14
S'Impact'
p403
sg16
I400
sg17
g13
sg18
g13
sg19
S'/usr/share/fonts/msttcorefonts/impact.ttf'
p404
sg21
g22
sbag7
(g8
g9
NtRp405
(dp406
g12
g49
sg14
S'Courier New'
p407
sg16
I700
sg17
g13
sg18
g13
sg19
S'/usr/share/fonts/msttcorefonts/courbi.ttf'
p408
sg21
g22
sbag7
(g8
g9
NtRp409
(dp410
g12
g13
sg14
S'KacstTitle'
p411
sg16
I400
sg17
g13
sg18
g13
sg19
S'/usr/share/fonts/arabic/KacstTitle.ttf'
p412
sg21
g22
sbag7
(g8
g9
NtRp413
(dp414
g12
g13
sg14
S'Luxi Serif'
p415
sg16
I400
sg17
g13
sg18
g13
sg19
S'/usr/X11R6/lib/X11/fonts/TTF/luxirr.ttf'
p416
sg21
g22
sbag7
(g8
g9
NtRp417
(dp418
g12
g13
sg14
S'Courier New'
p419
sg16
I700
sg17
g13
sg18
g13
sg19
S'/usr/share/fonts/msttcorefonts/courbd.ttf'
p420
sg21
g22
sbag7
(g8
g9
NtRp421
(dp422
g12
g13
sg14
S'KacstDigital'
p423
sg16
I400
sg17
g13
sg18
g13
sg19
S'/usr/share/fonts/arabic/KacstDigital.ttf'
p424
sg21
g22
sbag7
(g8
g9
NtRp425
(dp426
g12
g49
sg14
S'Courier New'
p427
sg16
I400
sg17
g13
sg18
g13
sg19
S'/usr/share/fonts/msttcorefonts/couri.ttf'
p428
sg21
g22
sbag7
(g8
g9
NtRp429
(dp430
g12
g13
sg14
S'Times New Roman'
p431
sg16
I500
sg17
g13
sg18
g13
sg19
S'/usr/share/fonts/msttcorefonts/times.ttf'
p432
sg21
g22
sbag7
(g8
g9
NtRp433
(dp434
g12
g49
sg14
S'Georgia'
p435
sg16
I400
sg17
g13
sg18
g13
sg19
S'/usr/share/fonts/msttcorefonts/georgiai.ttf'
p436
sg21
g22
sbag7
(g8
g9
NtRp437
(dp438
g12
g58
sg14
S'Luxi Mono'
p439
sg16
I400
sg17
g13
sg18
g13
sg19
S'/usr/X11R6/lib/X11/fonts/TTF/luximri.ttf'
p440
sg21
g22
sbag7
(g8
g9
NtRp441
(dp442
g12
g13
sg14
S'KacstFarsi'
p443
sg16
I400
sg17
g13
sg18
g13
sg19
S'/usr/share/fonts/arabic/KacstFarsi.ttf'
p444
sg21
g22
sbag7
(g8
g9
NtRp445
(dp446
g12
g13
sg14
S'AR PL KaitiM GB'
p447
sg16
I400
sg17
g13
sg18
g13
sg19
S'/usr/share/fonts/zh_CN/TrueType/gkai00mp.ttf'
p448
sg21
g22
sbag7
(g8
g9
NtRp449
(dp450
g12
g13
sg14
S'AR PL Mingti2L Big5'
p451
sg16
I400
sg17
g13
sg18
g13
sg19
S'/usr/share/fonts/zh_TW/TrueType/bsmi00lp.ttf'
p452
sg21
g22
sbasS'ttffiles'
p453
(lp454
S'/usr/local/lib/python2.6/site-packages/matplotlib/mpl-data/fonts/ttf/STIXSiz4Sym.ttf'
p455
aS'/usr/local/lib/python2.6/site-packages/matplotlib/mpl-data/fonts/ttf/STIXSiz1Sym.ttf'
p456
aS'/usr/local/lib/python2.6/site-packages/matplotlib/mpl-data/fonts/ttf/cmb10.ttf'
p457
aS'/usr/local/lib/python2.6/site-packages/matplotlib/mpl-data/fonts/ttf/STIXSiz2SymBol.ttf'
p458
aS'/usr/local/lib/python2.6/site-packages/matplotlib/mpl-data/fonts/ttf/STIXNonUni.ttf'
p459
aS'/usr/local/lib/python2.6/site-packages/matplotlib/mpl-data/fonts/ttf/STIXSiz3Sym.ttf'
p460
aS'/usr/local/lib/python2.6/site-packages/matplotlib/mpl-data/fonts/ttf/cmr10.ttf'
p461
aS'/usr/local/lib/python2.6/site-packages/matplotlib/mpl-data/fonts/ttf/STIXGeneralBolIta.ttf'
p462
aS'/usr/local/lib/python2.6/site-packages/matplotlib/mpl-data/fonts/ttf/STIXNonUniBolIta.ttf'
p463
aS'/usr/local/lib/python2.6/site-packages/matplotlib/mpl-data/fonts/ttf/VeraMoBI.ttf'
p464
aS'/usr/local/lib/python2.6/site-packages/matplotlib/mpl-data/fonts/ttf/STIXSiz3SymBol.ttf'
p465
aS'/usr/local/lib/python2.6/site-packages/matplotlib/mpl-data/fonts/ttf/STIXSiz4SymBol.ttf'
p466
aS'/usr/local/lib/python2.6/site-packages/matplotlib/mpl-data/fonts/ttf/STIXGeneralBol.ttf'
p467
aS'/usr/local/lib/python2.6/site-packages/matplotlib/mpl-data/fonts/ttf/VeraBd.ttf'
p468
aS'/usr/local/lib/python2.6/site-packages/matplotlib/mpl-data/fonts/ttf/cmss10.ttf'
p469
aS'/usr/local/lib/python2.6/site-packages/matplotlib/mpl-data/fonts/ttf/cmsy10.ttf'
p470
aS'/usr/local/lib/python2.6/site-packages/matplotlib/mpl-data/fonts/ttf/STIXNonUniIta.ttf'
p471
aS'/usr/local/lib/python2.6/site-packages/matplotlib/mpl-data/fonts/ttf/STIXSiz2Sym.ttf'
p472
aS'/usr/local/lib/python2.6/site-packages/matplotlib/mpl-data/fonts/ttf/STIXSiz5Sym.ttf'
p473
aS'/usr/local/lib/python2.6/site-packages/matplotlib/mpl-data/fonts/ttf/VeraMoIt.ttf'
p474
aS'/usr/local/lib/python2.6/site-packages/matplotlib/mpl-data/fonts/ttf/cmtt10.ttf'
p475
aS'/usr/local/lib/python2.6/site-packages/matplotlib/mpl-data/fonts/ttf/STIXGeneral.ttf'
p476
aS'/usr/local/lib/python2.6/site-packages/matplotlib/mpl-data/fonts/ttf/VeraMoBd.ttf'
p477
aS'/usr/local/lib/python2.6/site-packages/matplotlib/mpl-data/fonts/ttf/STIXGeneralItalic.ttf'
p478
aS'/usr/local/lib/python2.6/site-packages/matplotlib/mpl-data/fonts/ttf/Vera.ttf'
p479
aS'/usr/local/lib/python2.6/site-packages/matplotlib/mpl-data/fonts/ttf/VeraMono.ttf'
p480
aS'/usr/local/lib/python2.6/site-packages/matplotlib/mpl-data/fonts/ttf/VeraSe.ttf'
p481
aS'/usr/local/lib/python2.6/site-packages/matplotlib/mpl-data/fonts/ttf/VeraIt.ttf'
p482
aS'/usr/local/lib/python2.6/site-packages/matplotlib/mpl-data/fonts/ttf/STIXNonUniBol.ttf'
p483
aS'/usr/local/lib/python2.6/site-packages/matplotlib/mpl-data/fonts/ttf/VeraBI.ttf'
p484
aS'/usr/local/lib/python2.6/site-packages/matplotlib/mpl-data/fonts/ttf/cmex10.ttf'
p485
aS'/usr/local/lib/python2.6/site-packages/matplotlib/mpl-data/fonts/ttf/STIXSiz1SymBol.ttf'
p486
aS'/usr/local/lib/python2.6/site-packages/matplotlib/mpl-data/fonts/ttf/cmmi10.ttf'
p487
aS'/usr/local/lib/python2.6/site-packages/matplotlib/mpl-data/fonts/ttf/VeraSeBd.ttf'
p488
aS'/usr/share/fonts/msttcorefonts/trebucit.ttf'
p489
aS'/usr/share/fonts/msttcorefonts/arialbi.ttf'
p490
aS'/usr/share/fonts/arabic/KacstQura.ttf'
p491
aS'/usr/share/fonts/hi/lohit_hi.ttf'
p492
aS'/usr/share/fonts/msttcorefonts/georgiaz.ttf'
p493
aS'/usr/share/fonts/ko/TrueType/hline.ttf'
p494
aS'/usr/X11R6/lib/X11/fonts/TTF/luximbi.ttf'
p495
aS'/usr/share/fonts/msttcorefonts/trebuc.ttf'
p496
aS'/usr/share/fonts/arabic/KacstQuran.ttf'
p497
aS'/usr/share/fonts/msttcorefonts/webdings.ttf'
p498
aS'/usr/share/fonts/ja/TrueType/kochi-gothic-subst.ttf'
p499
aS'/usr/share/fonts/zh_CN/TrueType/zysong.ttf'
p500
aS'/usr/share/fonts/bitstream-vera/VeraMono.ttf'
p501
aS'/usr/X11R6/lib/X11/fonts/TTF/luxisb.ttf'
p502
aS'/usr/X11R6/lib/X11/fonts/TTF/luxirbi.ttf'
p503
aS'/usr/X11R6/lib/X11/fonts/TTF/luximr.ttf'
p504
aS'/usr/share/fonts/ko/TrueType/batang.ttf'
p505
aS'/usr/share/fonts/bengali/MuktiNarrow.ttf'
p506
aS'/usr/share/fonts/zh_CN/TrueType/gbsn00lp.ttf'
p507
aS'/usr/share/fonts/arabic/KacstDecorative.ttf'
p508
aS'/usr/X11R6/lib/X11/fonts/TTF/luxisri.ttf'
p509
aS'/usr/X11R6/lib/X11/fonts/TTF/luxirri.ttf'
p510
aS'/usr/share/fonts/bitstream-vera/VeraMoBd.ttf'
p511
aS'/usr/share/fonts/bitstream-vera/Vera.ttf'
p512
aS'/usr/share/fonts/ko/TrueType/dotum.ttf'
p513
aS'/usr/share/fonts/arabic/KacstQuraFixed.ttf'
p514
aS'/usr/share/fonts/msttcorefonts/arial.ttf'
p515
aS'/usr/share/fonts/msttcorefonts/trebucbi.ttf'
p516
aS'/usr/share/fonts/bn/lohit_bn.ttf'
p517
aS'/usr/share/fonts/bitstream-vera/VeraSeBd.ttf'
p518
aS'/usr/share/fonts/msttcorefonts/tahoma.ttf'
p519
aS'/usr/share/fonts/msttcorefonts/georgia.ttf'
p520
aS'/usr/share/fonts/bitstream-vera/VeraMoIt.ttf'
p521
aS'/usr/share/fonts/msttcorefonts/timesi.ttf'
p522
aS'/usr/share/fonts/msttcorefonts/comic.ttf'
p523
aS'/usr/share/fonts/msttcorefonts/ariblk.ttf'
p524
aS'/usr/share/fonts/bitstream-vera/VeraBI.ttf'
p525
aS'/usr/share/fonts/ta/lohit_ta.ttf'
p526
aS'/usr/X11R6/lib/X11/fonts/TTF/luxirb.ttf'
p527
aS'/usr/share/fonts/arabic/KacstBook.ttf'
p528
aS'/usr/share/fonts/bitstream-vera/VeraMoBI.ttf'
p529
aS'/usr/share/fonts/msttcorefonts/ariali.ttf'
p530
aS'/usr/X11R6/lib/X11/fonts/TTF/luxisr.ttf'
p531
aS'/usr/X11R6/lib/X11/fonts/TTF/luximb.ttf'
p532
aS'/usr/share/fonts/arabic/KacstTitleL.ttf'
p533
aS'/usr/share/fonts/bitstream-vera/VeraSe.ttf'
p534
aS'/usr/share/fonts/ko/TrueType/gulim.ttf'
p535
aS'/usr/share/fonts/msttcorefonts/andalemo.ttf'
p536
aS'/usr/share/fonts/msttcorefonts/georgiab.ttf'
p537
aS'/usr/share/fonts/msttcorefonts/cour.ttf'
p538
aS'/usr/share/fonts/msttcorefonts/verdanab.ttf'
p539
aS'/usr/share/fonts/msttcorefonts/verdana.ttf'
p540
aS'/usr/share/fonts/arabic/KacstArt.ttf'
p541
aS'/usr/X11R6/lib/X11/fonts/TTF/luxisbi.ttf'
p542
aS'/usr/share/fonts/msttcorefonts/trebucbd.ttf'
p543
aS'/usr/share/fonts/ja/TrueType/kochi-mincho-subst.ttf'
p544
aS'/usr/share/fonts/gu/lohit_gu.ttf'
p545
aS'/usr/share/fonts/msttcorefonts/timesbi.ttf'
p546
aS'/usr/share/fonts/arabic/KacstLetter.ttf'
p547
aS'/usr/share/fonts/bengali/MuktiNarrowBold.ttf'
p548
aS'/usr/share/fonts/openoffice/opens___.ttf'
p549
aS'/usr/share/fonts/msttcorefonts/arialbd.ttf'
p550
aS'/usr/share/fonts/msttcorefonts/comicbd.ttf'
p551
aS'/usr/share/fonts/msttcorefonts/timesbd.ttf'
p552
aS'/usr/share/fonts/bitstream-vera/VeraBd.ttf'
p553
aS'/usr/share/fonts/pa/lohit_pa.ttf'
p554
aS'/usr/share/fonts/msttcorefonts/verdanai.ttf'
p555
aS'/usr/share/fonts/zh_TW/TrueType/bkai00mp.ttf'
p556
aS'/usr/share/fonts/arabic/KacstPoster.ttf'
p557
aS'/usr/share/fonts/msttcorefonts/verdanaz.ttf'
p558
aS'/usr/share/fonts/msttcorefonts/impact.ttf'
p559
aS'/usr/share/fonts/msttcorefonts/courbi.ttf'
p560
aS'/usr/share/fonts/bitstream-vera/VeraIt.ttf'
p561
aS'/usr/share/fonts/arabic/KacstTitle.ttf'
p562
aS'/usr/X11R6/lib/X11/fonts/TTF/luxirr.ttf'
p563
aS'/usr/share/fonts/msttcorefonts/courbd.ttf'
p564
aS'/usr/share/fonts/arabic/KacstDigital.ttf'
p565
aS'/usr/share/fonts/msttcorefonts/couri.ttf'
p566
aS'/usr/share/fonts/msttcorefonts/times.ttf'
p567
aS'/usr/share/fonts/msttcorefonts/georgiai.ttf'
p568
aS'/usr/X11R6/lib/X11/fonts/TTF/luximri.ttf'
p569
aS'/usr/share/fonts/arabic/KacstFarsi.ttf'
p570
aS'/usr/share/fonts/zh_CN/TrueType/gkai00mp.ttf'
p571
aS'/usr/share/fonts/zh_TW/TrueType/bsmi00lp.ttf'
p572
asS'_FontManager__default_weight'
p573
g13
sS'ttf_lookup_cache'
p574
(dp575
sS'default_size'
p576
NsS'defaultFont'
p577
g479
sS'afmfiles'
p578
(lp579
S'/usr/local/lib/python2.6/site-packages/matplotlib/mpl-data/fonts/afm/ptmr8a.afm'
p580
aS'/usr/local/lib/python2.6/site-packages/matplotlib/mpl-data/fonts/afm/pagdo8a.afm'
p581
aS'/usr/local/lib/python2.6/site-packages/matplotlib/mpl-data/fonts/afm/phvbo8an.afm'
p582
aS'/usr/local/lib/python2.6/site-packages/matplotlib/mpl-data/fonts/afm/ptmbi8a.afm'
p583
aS'/usr/local/lib/python2.6/site-packages/matplotlib/mpl-data/fonts/afm/cmex10.afm'
p584
aS'/usr/local/lib/python2.6/site-packages/matplotlib/mpl-data/fonts/afm/pagko8a.afm'
p585
aS'/usr/local/lib/python2.6/site-packages/matplotlib/mpl-data/fonts/afm/putb8a.afm'
p586
aS'/usr/local/lib/python2.6/site-packages/matplotlib/mpl-data/fonts/afm/psyr.afm'
p587
aS'/usr/local/lib/python2.6/site-packages/matplotlib/mpl-data/fonts/afm/cmsy10.afm'
p588
aS'/usr/local/lib/python2.6/site-packages/matplotlib/mpl-data/fonts/afm/pcrro8a.afm'
p589
aS'/usr/local/lib/python2.6/site-packages/matplotlib/mpl-data/fonts/afm/pzcmi8a.afm'
p590
aS'/usr/local/lib/python2.6/site-packages/matplotlib/mpl-data/fonts/afm/pbkl8a.afm'
p591
aS'/usr/local/lib/python2.6/site-packages/matplotlib/mpl-data/fonts/afm/cmr10.afm'
p592
aS'/usr/local/lib/python2.6/site-packages/matplotlib/mpl-data/fonts/afm/phvb8an.afm'
p593
aS'/usr/local/lib/python2.6/site-packages/matplotlib/mpl-data/fonts/afm/putr8a.afm'
p594
aS'/usr/local/lib/python2.6/site-packages/matplotlib/mpl-data/fonts/afm/pplri8a.afm'
p595
aS'/usr/local/lib/python2.6/site-packages/matplotlib/mpl-data/fonts/afm/pcrr8a.afm'
p596
aS'/usr/local/lib/python2.6/site-packages/matplotlib/mpl-data/fonts/afm/phvro8a.afm'
p597
aS'/usr/local/lib/python2.6/site-packages/matplotlib/mpl-data/fonts/afm/pbkd8a.afm'
p598
aS'/usr/local/lib/python2.6/site-packages/matplotlib/mpl-data/fonts/afm/pbkli8a.afm'
p599
aS'/usr/local/lib/python2.6/site-packages/matplotlib/mpl-data/fonts/afm/pcrb8a.afm'
p600
aS'/usr/local/lib/python2.6/site-packages/matplotlib/mpl-data/fonts/afm/phvr8a.afm'
p601
aS'/usr/local/lib/python2.6/site-packages/matplotlib/mpl-data/fonts/afm/cmtt10.afm'
p602
aS'/usr/local/lib/python2.6/site-packages/matplotlib/mpl-data/fonts/afm/putbi8a.afm'
p603
aS'/usr/local/lib/python2.6/site-packages/matplotlib/mpl-data/fonts/afm/phvbo8a.afm'
p604
aS'/usr/local/lib/python2.6/site-packages/matplotlib/mpl-data/fonts/afm/ptmb8a.afm'
p605
aS'/usr/local/lib/python2.6/site-packages/matplotlib/mpl-data/fonts/afm/pncb8a.afm'
p606
aS'/usr/local/lib/python2.6/site-packages/matplotlib/mpl-data/fonts/afm/pzdr.afm'
p607
aS'/usr/local/lib/python2.6/site-packages/matplotlib/mpl-data/fonts/afm/pncbi8a.afm'
p608
aS'/usr/local/lib/python2.6/site-packages/matplotlib/mpl-data/fonts/afm/phvb8a.afm'
p609
aS'/usr/local/lib/python2.6/site-packages/matplotlib/mpl-data/fonts/afm/putri8a.afm'
p610
aS'/usr/local/lib/python2.6/site-packages/matplotlib/mpl-data/fonts/afm/phvr8an.afm'
p611
aS'/usr/local/lib/python2.6/site-packages/matplotlib/mpl-data/fonts/afm/phvro8an.afm'
p612
aS'/usr/local/lib/python2.6/site-packages/matplotlib/mpl-data/fonts/afm/pplbi8a.afm'
p613
aS'/usr/local/lib/python2.6/site-packages/matplotlib/mpl-data/fonts/afm/pncri8a.afm'
p614
aS'/usr/local/lib/python2.6/site-packages/matplotlib/mpl-data/fonts/afm/pbkdi8a.afm'
p615
aS'/usr/local/lib/python2.6/site-packages/matplotlib/mpl-data/fonts/afm/pagd8a.afm'
p616
aS'/usr/local/lib/python2.6/site-packages/matplotlib/mpl-data/fonts/afm/pplb8a.afm'
p617
aS'/usr/local/lib/python2.6/site-packages/matplotlib/mpl-data/fonts/afm/cmmi10.afm'
p618
aS'/usr/local/lib/python2.6/site-packages/matplotlib/mpl-data/fonts/afm/pcrbo8a.afm'
p619
aS'/usr/local/lib/python2.6/site-packages/matplotlib/mpl-data/fonts/afm/phvl8a.afm'
p620
aS'/usr/local/lib/python2.6/site-packages/matplotlib/mpl-data/fonts/afm/pncr8a.afm'
p621
aS'/usr/local/lib/python2.6/site-packages/matplotlib/mpl-data/fonts/afm/ptmri8a.afm'
p622
aS'/usr/local/lib/python2.6/site-packages/matplotlib/mpl-data/fonts/afm/phvlo8a.afm'
p623
aS'/usr/local/lib/python2.6/site-packages/matplotlib/mpl-data/fonts/afm/pagk8a.afm'
p624
aS'/usr/local/lib/python2.6/site-packages/matplotlib/mpl-data/fonts/afm/pplr8a.afm'
p625
aS'/usr/share/fonts/default/Type1/n019064l.afm'
p626
aS'/usr/share/fonts/hebrew/MiriamCLM-Book.afm'
p627
aS'/usr/share/fonts/hebrew/DrugulinCLM-BoldItalic.afm'
p628
aS'/usr/share/fonts/default/Type1/b018032l.afm'
p629
aS'/usr/share/fonts/default/ghostscript/fcyri.afm'
p630
aS'/usr/share/fonts/default/Type1/p052024l.afm'
p631
aS'/usr/share/fonts/default/Type1/n019003l.afm'
p632
aS'/usr/share/fonts/hebrew/DavidCLM-Bold.afm'
p633
aS'/usr/share/fonts/default/Type1/c059013l.afm'
p634
aS'/usr/share/fonts/hebrew/AharoniCLM-Bold.afm'
p635
aS'/usr/share/fonts/hebrew/ElliniaCLM-Light.afm'
p636
aS'/usr/share/fonts/hebrew/FrankRuehlCLM-Medium.afm'
p637
aS'/usr/share/fonts/hebrew/NachlieliCLM-BoldOblique.afm'
p638
aS'/usr/share/fonts/default/Type1/p052003l.afm'
p639
aS'/usr/share/fonts/hebrew/DavidCLM-Medium.afm'
p640
aS'/usr/share/fonts/default/Type1/n021023l.afm'
p641
aS'/usr/share/fonts/hebrew/MiriamCLM-Bold.afm'
p642
aS'/usr/share/fonts/default/Type1/n022023l.afm'
p643
aS'/usr/share/fonts/default/Type1/n021024l.afm'
p644
aS'/usr/share/fonts/hebrew/MiriamMonoCLM-Bold.afm'
p645
aS'/usr/share/fonts/default/Type1/a010033l.afm'
p646
aS'/usr/share/fonts/default/Type1/p052004l.afm'
p647
aS'/usr/share/fonts/default/Type1/n019023l.afm'
p648
aS'/usr/share/fonts/hebrew/MiriamMonoCLM-BookOblique.afm'
p649
aS'/usr/share/fonts/default/Type1/n019063l.afm'
p650
aS'/usr/share/fonts/hebrew/AharoniCLM-Book.afm'
p651
aS'/usr/share/fonts/default/Type1/n019043l.afm'
p652
aS'/usr/share/fonts/default/ghostscript/bchri.afm'
p653
aS'/usr/share/fonts/hebrew/AharoniCLM-BookOblique.afm'
p654
aS'/usr/share/fonts/hebrew/FrankRuehlCLM-BoldOblique.afm'
p655
aS'/usr/share/fonts/default/Type1/n019044l.afm'
p656
aS'/usr/share/fonts/hebrew/DrugulinCLM-Bold.afm'
p657
aS'/usr/share/fonts/default/Type1/n021004l.afm'
p658
aS'/usr/share/fonts/default/ghostscript/bchbi.afm'
p659
aS'/usr/share/fonts/hebrew/NachlieliCLM-Light.afm'
p660
aS'/usr/share/fonts/default/Type1/n019024l.afm'
p661
aS'/usr/share/fonts/default/Type1/a010035l.afm'
p662
aS'/usr/share/fonts/default/ghostscript/fcyr.afm'
p663
aS'/usr/share/fonts/hebrew/ElliniaCLM-LightItalic.afm'
p664
aS'/usr/share/fonts/hebrew/MiriamMonoCLM-Book.afm'
p665
aS'/usr/share/fonts/hebrew/ElliniaCLM-BoldItalic.afm'
p666
aS'/usr/share/fonts/hebrew/CaladingsCLM.afm'
p667
aS'/usr/share/fonts/default/Type1/c059036l.afm'
p668
aS'/usr/share/fonts/default/Type1/a010013l.afm'
p669
aS'/usr/share/fonts/hebrew/YehudaCLM-Bold.afm'
p670
aS'/usr/share/fonts/default/Type1/z003034l.afm'
p671
aS'/usr/share/fonts/hebrew/FrankRuehlCLM-Bold.afm'
p672
aS'/usr/share/fonts/default/Type1/n022004l.afm'
p673
aS'/usr/share/fonts/default/Type1/n019004l.afm'
p674
aS'/usr/share/fonts/hebrew/MiriamMonoCLM-BoldOblique.afm'
p675
aS'/usr/share/fonts/hebrew/ElliniaCLM-Bold.afm'
p676
aS'/usr/share/fonts/default/Type1/s050000l.afm'
p677
aS'/usr/share/fonts/default/Type1/b018012l.afm'
p678
aS'/usr/share/fonts/hebrew/NachlieliCLM-Bold.afm'
p679
aS'/usr/share/fonts/default/Type1/d050000l.afm'
p680
aS'/usr/share/fonts/hebrew/DavidCLM-MediumItalic.afm'
p681
aS'/usr/share/fonts/hebrew/YehudaCLM-Light.afm'
p682
aS'/usr/share/fonts/default/Type1/b018035l.afm'
p683
aS'/usr/share/fonts/default/Type1/n021003l.afm'
p684
aS'/usr/share/fonts/default/Type1/n022024l.afm'
p685
aS'/usr/share/fonts/default/Type1/a010015l.afm'
p686
aS'/usr/share/fonts/hebrew/NachlieliCLM-LightOblique.afm'
p687
aS'/usr/share/fonts/hebrew/AharoniCLM-BoldOblique.afm'
p688
aS'/usr/share/fonts/default/Type1/c059033l.afm'
p689
aS'/usr/share/fonts/default/ghostscript/bchb.afm'
p690
aS'/usr/share/fonts/default/Type1/n022003l.afm'
p691
aS'/usr/share/fonts/default/ghostscript/u004006t.afm'
p692
aS'/usr/share/fonts/default/Type1/p052023l.afm'
p693
aS'/usr/share/fonts/default/ghostscript/u003043t.afm'
p694
aS'/usr/share/fonts/default/ghostscript/bchr.afm'
p695
aS'/usr/share/fonts/default/Type1/b018015l.afm'
p696
aS'/usr/share/fonts/default/Type1/c059016l.afm'
p697
aS'/usr/share/fonts/hebrew/FrankRuehlCLM-MediumOblique.afm'
p698
asS'afmlist'
p699
(lp700
g7
(g8
g9
NtRp701
(dp702
g12
g13
sg14
S'Times'
p703
sg16
I500
sg17
g13
sg18
g13
sg19
g580
sg21
g22
sbag7
(g8
g9
NtRp704
(dp705
g12
g49
sg14
S'ITC Avant Garde Gothic'
p706
sg16
I600
sg17
g13
sg18
g13
sg19
g581
sg21
g22
sbag7
(g8
g9
NtRp707
(dp708
g12
g49
sg14
S'Helvetica'
p709
sg16
I700
sg17
g13
sg18
g13
sg19
g582
sg21
g22
sbag7
(g8
g9
NtRp710
(dp711
g12
g49
sg14
S'Times'
p712
sg16
I700
sg17
g13
sg18
g13
sg19
g583
sg21
g22
sbag7
(g8
g9
NtRp713
(dp714
g12
g13
sg14
S'Computer Modern'
p715
sg16
I500
sg17
g13
sg18
g13
sg19
g584
sg21
g22
sbag7
(g8
g9
NtRp716
(dp717
g12
g49
sg14
S'ITC Avant Garde Gothic'
p718
sg16
I400
sg17
g13
sg18
g13
sg19
g585
sg21
g22
sbag7
(g8
g9
NtRp719
(dp720
g12
g13
sg14
S'Utopia'
p721
sg16
I700
sg17
g13
sg18
g13
sg19
g586
sg21
g22
sbag7
(g8
g9
NtRp722
(dp723
g12
g13
sg14
S'Symbol'
p724
sg16
I500
sg17
g13
sg18
g13
sg19
g587
sg21
g22
sbag7
(g8
g9
NtRp725
(dp726
g12
g49
sg14
S'Computer Modern'
p727
sg16
I500
sg17
g13
sg18
g13
sg19
g588
sg21
g22
sbag7
(g8
g9
NtRp728
(dp729
g12
g49
sg14
S'Courier'
p730
sg16
I500
sg17
g13
sg18
g13
sg19
g589
sg21
g22
sbag7
(g8
g9
NtRp731
(dp732
g12
g49
sg14
S'ITC Zapf Chancery'
p733
sg16
I500
sg17
g13
sg18
g13
sg19
g590
sg21
g22
sbag7
(g8
g9
NtRp734
(dp735
g12
g13
sg14
S'ITC Bookman'
p736
sg16
I200
sg17
g13
sg18
g13
sg19
g591
sg21
g22
sbag7
(g8
g9
NtRp737
(dp738
g12
g13
sg14
S'Computer Modern'
p739
sg16
I500
sg17
g13
sg18
g13
sg19
g592
sg21
g22
sbag7
(g8
g9
NtRp740
(dp741
g12
g13
sg14
S'Helvetica'
p742
sg16
I700
sg17
g13
sg18
g13
sg19
g593
sg21
g22
sbag7
(g8
g9
NtRp743
(dp744
g12
g13
sg14
S'Utopia'
p745
sg16
I400
sg17
g13
sg18
g13
sg19
g594
sg21
g22
sbag7
(g8
g9
NtRp746
(dp747
g12
g49
sg14
S'Palatino'
p748
sg16
I500
sg17
g13
sg18
g13
sg19
g595
sg21
g22
sbag7
(g8
g9
NtRp749
(dp750
g12
g13
sg14
S'Courier'
p751
sg16
I500
sg17
g13
sg18
g13
sg19
g596
sg21
g22
sbag7
(g8
g9
NtRp752
(dp753
g12
g49
sg14
S'Helvetica'
p754
sg16
I500
sg17
g13
sg18
g13
sg19
g597
sg21
g22
sbag7
(g8
g9
NtRp755
(dp756
g12
g13
sg14
S'ITC Bookman'
p757
sg16
I600
sg17
g13
sg18
g13
sg19
g598
sg21
g22
sbag7
(g8
g9
NtRp758
(dp759
g12
g49
sg14
S'ITC Bookman'
p760
sg16
I200
sg17
g13
sg18
g13
sg19
g599
sg21
g22
sbag7
(g8
g9
NtRp761
(dp762
g12
g13
sg14
S'Courier'
p763
sg16
I700
sg17
g13
sg18
g13
sg19
g600
sg21
g22
sbag7
(g8
g9
NtRp764
(dp765
g12
g13
sg14
S'Helvetica'
p766
sg16
I500
sg17
g13
sg18
g13
sg19
g601
sg21
g22
sbag7
(g8
g9
NtRp767
(dp768
g12
g13
sg14
S'Computer Modern'
p769
sg16
I500
sg17
g13
sg18
g13
sg19
g602
sg21
g22
sbag7
(g8
g9
NtRp770
(dp771
g12
g49
sg14
S'Utopia'
p772
sg16
I700
sg17
g13
sg18
g13
sg19
g603
sg21
g22
sbag7
(g8
g9
NtRp773
(dp774
g12
g49
sg14
S'Helvetica'
p775
sg16
I700
sg17
g13
sg18
g13
sg19
g604
sg21
g22
sbag7
(g8
g9
NtRp776
(dp777
g12
g13
sg14
S'Times'
p778
sg16
I700
sg17
g13
sg18
g13
sg19
g605
sg21
g22
sbag7
(g8
g9
NtRp779
(dp780
g12
g13
sg14
S'New Century Schoolbook'
p781
sg16
I700
sg17
g13
sg18
g13
sg19
g606
sg21
g22
sbag7
(g8
g9
NtRp782
(dp783
g12
g13
sg14
S'ITC Zapf Dingbats'
p784
sg16
I500
sg17
g13
sg18
g13
sg19
g607
sg21
g22
sbag7
(g8
g9
NtRp785
(dp786
g12
g49
sg14
S'New Century Schoolbook'
p787
sg16
I700
sg17
g13
sg18
g13
sg19
g608
sg21
g22
sbag7
(g8
g9
NtRp788
(dp789
g12
g13
sg14
S'Helvetica'
p790
sg16
I700
sg17
g13
sg18
g13
sg19
g609
sg21
g22
sbag7
(g8
g9
NtRp791
(dp792
g12
g49
sg14
S'Utopia'
p793
sg16
I400
sg17
g13
sg18
g13
sg19
g610
sg21
g22
sbag7
(g8
g9
NtRp794
(dp795
g12
g13
sg14
S'Helvetica'
p796
sg16
I500
sg17
g13
sg18
g13
sg19
g611
sg21
g22
sbag7
(g8
g9
NtRp797
(dp798
g12
g49
sg14
S'Helvetica'
p799
sg16
I500
sg17
g13
sg18
g13
sg19
g612
sg21
g22
sbag7
(g8
g9
NtRp800
(dp801
g12
g49
sg14
S'Palatino'
p802
sg16
I700
sg17
g13
sg18
g13
sg19
g613
sg21
g22
sbag7
(g8
g9
NtRp803
(dp804
g12
g49
sg14
S'New Century Schoolbook'
p805
sg16
I500
sg17
g13
sg18
g13
sg19
g614
sg21
g22
sbag7
(g8
g9
NtRp806
(dp807
g12
g49
sg14
S'ITC Bookman'
p808
sg16
I600
sg17
g13
sg18
g13
sg19
g615
sg21
g22
sbag7
(g8
g9
NtRp809
(dp810
g12
g13
sg14
S'ITC Avant Garde Gothic'
p811
sg16
I600
sg17
g13
sg18
g13
sg19
g616
sg21
g22
sbag7
(g8
g9
NtRp812
(dp813
g12
g13
sg14
S'Palatino'
p814
sg16
I700
sg17
g13
sg18
g13
sg19
g617
sg21
g22
sbag7
(g8
g9
NtRp815
(dp816
g12
g49
sg14
S'Computer Modern'
p817
sg16
I500
sg17
g13
sg18
g13
sg19
g618
sg21
g22
sbag7
(g8
g9
NtRp818
(dp819
g12
g49
sg14
S'Courier'
p820
sg16
I700
sg17
g13
sg18
g13
sg19
g619
sg21
g22
sbag7
(g8
g9
NtRp821
(dp822
g12
g13
sg14
S'Helvetica'
p823
sg16
I200
sg17
g13
sg18
g13
sg19
g620
sg21
g22
sbag7
(g8
g9
NtRp824
(dp825
g12
g13
sg14
S'New Century Schoolbook'
p826
sg16
I500
sg17
g13
sg18
g13
sg19
g621
sg21
g22
sbag7
(g8
g9
NtRp827
(dp828
g12
g49
sg14
S'Times'
p829
sg16
I500
sg17
g13
sg18
g13
sg19
g622
sg21
g22
sbag7
(g8
g9
NtRp830
(dp831
g12
g49
sg14
S'Helvetica'
p832
sg16
I200
sg17
g13
sg18
g13
sg19
g623
sg21
g22
sbag7
(g8
g9
NtRp833
(dp834
g12
g13
sg14
S'ITC Avant Garde Gothic'
p835
sg16
I400
sg17
g13
sg18
g13
sg19
g624
sg21
g22
sbag7
(g8
g9
NtRp836
(dp837
g12
g13
sg14
S'Palatino'
p838
sg16
I500
sg17
g13
sg18
g13
sg19
g625
sg21
g22
sbag7
(g8
g9
NtRp839
(dp840
g12
g49
sg14
S'Nimbus Sans L Condensed'
p841
sg16
I700
sg17
g13
sg18
g13
sg19
g626
sg21
g22
sbag7
(g8
g9
NtRp842
(dp843
g12
g13
sg14
S'Miriam CLM'
p844
sg16
I400
sg17
g13
sg18
g13
sg19
g627
sg21
g22
sbag7
(g8
g9
NtRp845
(dp846
g12
g49
sg14
S'Drugulin CLM'
p847
sg16
I700
sg17
g13
sg18
g13
sg19
g628
sg21
g22
sbag7
(g8
g9
NtRp848
(dp849
g12
g49
sg14
S'URW Bookman L'
p850
sg16
I400
sg17
g13
sg18
g13
sg19
g629
sg21
g22
sbag7
(g8
g9
NtRp851
(dp852
g12
g49
sg14
S'Cyrillic'
p853
sg16
I500
sg17
g13
sg18
g13
sg19
g630
sg21
g22
sbag7
(g8
g9
NtRp854
(dp855
g12
g49
sg14
S'URW Palladio L'
p856
sg16
I700
sg17
g13
sg18
g13
sg19
g631
sg21
g22
sbag7
(g8
g9
NtRp857
(dp858
g12
g13
sg14
S'Nimbus Sans L'
p859
sg16
I400
sg17
g13
sg18
g13
sg19
g632
sg21
g22
sbag7
(g8
g9
NtRp860
(dp861
g12
g13
sg14
S'David CLM'
p862
sg16
I700
sg17
g13
sg18
g13
sg19
g633
sg21
g22
sbag7
(g8
g9
NtRp863
(dp864
g12
g13
sg14
S'Century Schoolbook L'
p865
sg16
I400
sg17
g13
sg18
g13
sg19
g634
sg21
g22
sbag7
(g8
g9
NtRp866
(dp867
g12
g13
sg14
S'Aharoni CLM'
p868
sg16
I700
sg17
g13
sg18
g13
sg19
g635
sg21
g22
sbag7
(g8
g9
NtRp869
(dp870
g12
g13
sg14
S'Ellinia CLM'
p871
sg16
I200
sg17
g13
sg18
g13
sg19
g636
sg21
g22
sbag7
(g8
g9
NtRp872
(dp873
g12
g13
sg14
S'Frank Ruehl CLM'
p874
sg16
I500
sg17
g13
sg18
g13
sg19
g637
sg21
g22
sbag7
(g8
g9
NtRp875
(dp876
g12
g49
sg14
S'Nachlieli CLM'
p877
sg16
I700
sg17
g13
sg18
g13
sg19
g638
sg21
g22
sbag7
(g8
g9
NtRp878
(dp879
g12
g13
sg14
S'URW Palladio L'
p880
sg16
I400
sg17
g13
sg18
g13
sg19
g639
sg21
g22
sbag7
(g8
g9
NtRp881
(dp882
g12
g13
sg14
S'David CLM'
p883
sg16
I500
sg17
g13
sg18
g13
sg19
g640
sg21
g22
sbag7
(g8
g9
NtRp884
(dp885
g12
g49
sg14
S'Nimbus Roman No9 L'
p886
sg16
I400
sg17
g13
sg18
g13
sg19
g641
sg21
g22
sbag7
(g8
g9
NtRp887
(dp888
g12
g13
sg14
S'Miriam CLM'
p889
sg16
I700
sg17
g13
sg18
g13
sg19
g642
sg21
g22
sbag7
(g8
g9
NtRp890
(dp891
g12
g49
sg14
S'Nimbus Mono L'
p892
sg16
I400
sg17
g13
sg18
g13
sg19
g643
sg21
g22
sbag7
(g8
g9
NtRp893
(dp894
g12
g49
sg14
S'Nimbus Roman No9 L'
p895
sg16
I700
sg17
g13
sg18
g13
sg19
g644
sg21
g22
sbag7
(g8
g9
NtRp896
(dp897
g12
g13
sg14
S'Miriam Mono CLM'
p898
sg16
I700
sg17
g13
sg18
g13
sg19
g645
sg21
g22
sbag7
(g8
g9
NtRp899
(dp900
g12
g49
sg14
S'URW Gothic L'
p901
sg16
I400
sg17
g13
sg18
g13
sg19
g646
sg21
g22
sbag7
(g8
g9
NtRp902
(dp903
g12
g13
sg14
S'URW Palladio L'
p904
sg16
I700
sg17
g13
sg18
g13
sg19
g647
sg21
g22
sbag7
(g8
g9
NtRp905
(dp906
g12
g49
sg14
S'Nimbus Sans L'
p907
sg16
I400
sg17
g13
sg18
g13
sg19
g648
sg21
g22
sbag7
(g8
g9
NtRp908
(dp909
g12
g49
sg14
S'Miriam Mono CLM'
p910
sg16
I400
sg17
g13
sg18
g13
sg19
g649
sg21
g22
sbag7
(g8
g9
NtRp911
(dp912
g12
g49
sg14
S'Nimbus Sans L Condensed'
p913
sg16
I400
sg17
g13
sg18
g13
sg19
g650
sg21
g22
sbag7
(g8
g9
NtRp914
(dp915
g12
g13
sg14
S'Aharoni CLM'
p916
sg16
I400
sg17
g13
sg18
g13
sg19
g651
sg21
g22
sbag7
(g8
g9
NtRp917
(dp918
g12
g13
sg14
S'Nimbus Sans L Condensed'
p919
sg16
I400
sg17
g13
sg18
g13
sg19
g652
sg21
g22
sbag7
(g8
g9
NtRp920
(dp921
g12
g49
sg14
S'Bitstream Charter'
p922
sg16
I400
sg17
g13
sg18
g13
sg19
g653
sg21
g22
sbag7
(g8
g9
NtRp923
(dp924
g12
g49
sg14
S'Aharoni CLM'
p925
sg16
I400
sg17
g13
sg18
g13
sg19
g654
sg21
g22
sbag7
(g8
g9
NtRp926
(dp927
g12
g49
sg14
S'Frank Ruehl CLM'
p928
sg16
I700
sg17
g13
sg18
g13
sg19
g655
sg21
g22
sbag7
(g8
g9
NtRp929
(dp930
g12
g13
sg14
S'Nimbus Sans L Condensed'
p931
sg16
I700
sg17
g13
sg18
g13
sg19
g656
sg21
g22
sbag7
(g8
g9
NtRp932
(dp933
g12
g13
sg14
S'Drugulin CLM'
p934
sg16
I700
sg17
g13
sg18
g13
sg19
g657
sg21
g22
sbag7
(g8
g9
NtRp935
(dp936
g12
g13
sg14
S'Nimbus Roman No9 L'
p937
sg16
I700
sg17
g13
sg18
g13
sg19
g658
sg21
g22
sbag7
(g8
g9
NtRp938
(dp939
g12
g49
sg14
S'Bitstream Charter'
p940
sg16
I700
sg17
g13
sg18
g13
sg19
g659
sg21
g22
sbag7
(g8
g9
NtRp941
(dp942
g12
g13
sg14
S'Nachlieli CLM'
p943
sg16
I200
sg17
g13
sg18
g13
sg19
g660
sg21
g22
sbag7
(g8
g9
NtRp944
(dp945
g12
g49
sg14
S'Nimbus Sans L'
p946
sg16
I700
sg17
g13
sg18
g13
sg19
g661
sg21
g22
sbag7
(g8
g9
NtRp947
(dp948
g12
g49
sg14
S'URW Gothic L'
p949
sg16
I600
sg17
g13
sg18
g13
sg19
g662
sg21
g22
sbag7
(g8
g9
NtRp950
(dp951
g12
g13
sg14
S'Cyrillic'
p952
sg16
I500
sg17
g13
sg18
g13
sg19
g663
sg21
g22
sbag7
(g8
g9
NtRp953
(dp954
g12
g49
sg14
S'Ellinia CLM'
p955
sg16
I200
sg17
g13
sg18
g13
sg19
g664
sg21
g22
sbag7
(g8
g9
NtRp956
(dp957
g12
g13
sg14
S'Miriam Mono CLM'
p958
sg16
I400
sg17
g13
sg18
g13
sg19
g665
sg21
g22
sbag7
(g8
g9
NtRp959
(dp960
g12
g49
sg14
S'Ellinia CLM'
p961
sg16
I700
sg17
g13
sg18
g13
sg19
g666
sg21
g22
sbag7
(g8
g9
NtRp962
(dp963
g12
g13
sg14
S'Caladings CLM'
p964
sg16
I400
sg17
g13
sg18
g13
sg19
g667
sg21
g22
sbag7
(g8
g9
NtRp965
(dp966
g12
g49
sg14
S'Century Schoolbook L'
p967
sg16
I700
sg17
g13
sg18
g13
sg19
g668
sg21
g22
sbag7
(g8
g9
NtRp968
(dp969
g12
g13
sg14
S'URW Gothic L'
p970
sg16
I400
sg17
g13
sg18
g13
sg19
g669
sg21
g22
sbag7
(g8
g9
NtRp971
(dp972
g12
g13
sg14
S'Yehuda CLM'
p973
sg16
I700
sg17
g13
sg18
g13
sg19
g670
sg21
g22
sbag7
(g8
g9
NtRp974
(dp975
g12
g49
sg14
S'URW Chancery L'
p976
sg16
I500
sg17
g13
sg18
g13
sg19
g671
sg21
g22
sbag7
(g8
g9
NtRp977
(dp978
g12
g13
sg14
S'Frank Ruehl CLM'
p979
sg16
I700
sg17
g13
sg18
g13
sg19
g672
sg21
g22
sbag7
(g8
g9
NtRp980
(dp981
g12
g13
sg14
S'Nimbus Mono L'
p982
sg16
I700
sg17
g13
sg18
g13
sg19
g673
sg21
g22
sbag7
(g8
g9
NtRp983
(dp984
g12
g13
sg14
S'Nimbus Sans L'
p985
sg16
I700
sg17
g13
sg18
g13
sg19
g674
sg21
g22
sbag7
(g8
g9
NtRp986
(dp987
g12
g49
sg14
S'Miriam Mono CLM'
p988
sg16
I700
sg17
g13
sg18
g13
sg19
g675
sg21
g22
sbag7
(g8
g9
NtRp989
(dp990
g12
g13
sg14
S'Ellinia CLM'
p991
sg16
I700
sg17
g13
sg18
g13
sg19
g676
sg21
g22
sbag7
(g8
g9
NtRp992
(dp993
g12
g13
sg14
S'Standard Symbols L'
p994
sg16
I400
sg17
g13
sg18
g13
sg19
g677
sg21
g22
sbag7
(g8
g9
NtRp995
(dp996
g12
g13
sg14
S'URW Bookman L'
p997
sg16
I400
sg17
g13
sg18
g13
sg19
g678
sg21
g22
sbag7
(g8
g9
NtRp998
(dp999
g12
g13
sg14
S'Nachlieli CLM'
p1000
sg16
I700
sg17
g13
sg18
g13
sg19
g679
sg21
g22
sbag7
(g8
g9
NtRp1001
(dp1002
g12
g13
sg14
S'Dingbats'
p1003
sg16
I400
sg17
g13
sg18
g13
sg19
g680
sg21
g22
sbag7
(g8
g9
NtRp1004
(dp1005
g12
g49
sg14
S'David CLM'
p1006
sg16
I500
sg17
g13
sg18
g13
sg19
g681
sg21
g22
sbag7
(g8
g9
NtRp1007
(dp1008
g12
g13
sg14
S'Yehuda CLM'
p1009
sg16
I200
sg17
g13
sg18
g13
sg19
g682
sg21
g22
sbag7
(g8
g9
NtRp1010
(dp1011
g12
g49
sg14
S'URW Bookman L'
p1012
sg16
I700
sg17
g13
sg18
g13
sg19
g683
sg21
g22
sbag7
(g8
g9
NtRp1013
(dp1014
g12
g13
sg14
S'Nimbus Roman No9 L'
p1015
sg16
I400
sg17
g13
sg18
g13
sg19
g684
sg21
g22
sbag7
(g8
g9
NtRp1016
(dp1017
g12
g49
sg14
S'Nimbus Mono L'
p1018
sg16
I700
sg17
g13
sg18
g13
sg19
g685
sg21
g22
sbag7
(g8
g9
NtRp1019
(dp1020
g12
g13
sg14
S'URW Gothic L'
p1021
sg16
I600
sg17
g13
sg18
g13
sg19
g686
sg21
g22
sbag7
(g8
g9
NtRp1022
(dp1023
g12
g49
sg14
S'Nachlieli CLM'
p1024
sg16
I200
sg17
g13
sg18
g13
sg19
g687
sg21
g22
sbag7
(g8
g9
NtRp1025
(dp1026
g12
g49
sg14
S'Aharoni CLM'
p1027
sg16
I700
sg17
g13
sg18
g13
sg19
g688
sg21
g22
sbag7
(g8
g9
NtRp1028
(dp1029
g12
g49
sg14
S'Century Schoolbook L'
p1030
sg16
I400
sg17
g13
sg18
g13
sg19
g689
sg21
g22
sbag7
(g8
g9
NtRp1031
(dp1032
g12
g13
sg14
S'Bitstream Charter'
p1033
sg16
I700
sg17
g13
sg18
g13
sg19
g690
sg21
g22
sbag7
(g8
g9
NtRp1034
(dp1035
g12
g13
sg14
S'Nimbus Mono L'
p1036
sg16
I400
sg17
g13
sg18
g13
sg19
g691
sg21
g22
sbag7
(g8
g9
NtRp1037
(dp1038
g12
g13
sg14
S'URW Grotesk T'
p1039
sg16
I400
sg17
g13
sg18
g13
sg19
g692
sg21
g22
sbag7
(g8
g9
NtRp1040
(dp1041
g12
g49
sg14
S'URW Palladio L'
p1042
sg16
I400
sg17
g13
sg18
g13
sg19
g693
sg21
g22
sbag7
(g8
g9
NtRp1043
(dp1044
g12
g13
sg14
S'URW Antiqua T'
p1045
sg16
I400
sg17
g13
sg18
g13
sg19
g694
sg21
g22
sbag7
(g8
g9
NtRp1046
(dp1047
g12
g13
sg14
S'Bitstream Charter'
p1048
sg16
I400
sg17
g13
sg18
g13
sg19
g695
sg21
g22
sbag7
(g8
g9
NtRp1049
(dp1050
g12
g13
sg14
S'URW Bookman L'
p1051
sg16
I700
sg17
g13
sg18
g13
sg19
g696
sg21
g22
sbag7
(g8
g9
NtRp1052
(dp1053
g12
g13
sg14
S'Century Schoolbook L'
p1054
sg16
I700
sg17
g13
sg18
g13
sg19
g697
sg21
g22
sbag7
(g8
g9
NtRp1055
(dp1056
g12
g49
sg14
S'Frank Ruehl CLM'
p1057
sg16
I500
sg17
g13
sg18
g13
sg19
g698
sg21
g22
sbasb.